target datalayout = "e-m:e-p270:32:32-p271:32:32-p272:64:64-i64:64-i128:128-f80:128-n8:16:32:64-S128"
target triple = "x86_64-pc-linux-gnu"

%"class.sat::literal" = type { i32 }
%"class.sat::ddfw" = type <{ %"struct.sat::ddfw::config", %class.reslimit, %class.vector.1, %class.svector.2, %class.svector.4, %class.svector.6, %class.svector.6, %class.svector.8, i32, [4 x i8], %class.vector.10, %class.svector.11, %class.svector.11, i32, i32, i32, [4 x i8], %class.indexed_uint_set, %class.indexed_uint_set, %class.random_gen, [4 x i8], i64, i32, i32, i32, i32, i64, i64, i64, i64, i64, i32, i32, %class.u_map, %class.stopwatch, %class.svector.11, i8, [7 x i8], %class.scoped_ptr, %"class.std::function", i32, [4 x i8], %class.tracked_uint_set, %class.svector.11, i8, i8, [6 x i8] }>
%"struct.sat::ddfw::config" = type { i32, i32, i32, i32, i32, i32, double }
%class.reslimit = type { %"struct.std::atomic", i8, i64, i64, %class.svector, %class.ptr_vector }
%"struct.std::atomic" = type { %"struct.std::__atomic_base" }
%"struct.std::__atomic_base" = type { i32 }
%class.svector = type { %class.vector }
%class.vector = type { ptr }
%class.ptr_vector = type { %class.vector.0 }
%class.vector.0 = type { ptr }
%class.vector.1 = type { ptr }
%class.svector.2 = type { %class.vector.3 }
%class.vector.3 = type { ptr }
%class.svector.4 = type { %class.vector.5 }
%class.vector.5 = type { ptr }
%class.svector.6 = type { %class.vector.7 }
%class.vector.7 = type { ptr }
%class.svector.8 = type { %class.vector.9 }
%class.vector.9 = type { ptr }
%class.vector.10 = type { ptr }
%class.indexed_uint_set = type { i32, %class.svector.11, %class.svector.11 }
%class.random_gen = type { i32 }
%class.u_map = type { %class.map }
%class.map = type { %class.table2map }
%class.table2map = type { %class.core_hashtable }
%class.core_hashtable = type <{ ptr, i32, i32, i32, [4 x i8] }>
%class.stopwatch = type <{ %"class.std::chrono::time_point", %"class.std::chrono::duration", i8, [7 x i8] }>
%"class.std::chrono::time_point" = type { %"class.std::chrono::duration" }
%"class.std::chrono::duration" = type { i64 }
%class.scoped_ptr = type { ptr }
%"class.std::function" = type { %"class.std::_Function_base", ptr }
%"class.std::_Function_base" = type { %"union.std::_Any_data", ptr }
%"union.std::_Any_data" = type { %"union.std::_Nocopy_types" }
%"union.std::_Nocopy_types" = type { { i64, i64 } }
%class.tracked_uint_set = type { %class.svector.13, %class.svector.11 }
%class.svector.13 = type { %class.vector.14 }
%class.vector.14 = type { ptr }
%class.svector.11 = type { %class.vector.12 }
%class.vector.12 = type { ptr }

; Function Attrs: mustprogress nounwind uwtable
define linkonce_odr hidden noundef ptr @_ZNK6vectorIN3sat7literalELb0EjE4dataEv(ptr noundef nonnull align 8 dereferenceable(8) %0) #4 comdat align 2 {
  %2 = alloca ptr, align 8
  store ptr %0, ptr %2, align 8, !tbaa !31
  %3 = load ptr, ptr %2, align 8
  %4 = getelementptr inbounds nuw %class.vector.3, ptr %3, i32 0, i32 0
  %5 = load ptr, ptr %4, align 8, !tbaa !167
  ret ptr %5
}

; Function Attrs: mustprogress nounwind uwtable
define linkonce_odr hidden noundef i32 @_ZNK6vectorIN3sat7literalELb0EjE4sizeEv(ptr noundef nonnull align 8 dereferenceable(8) %0) #4 comdat align 2 {
  %2 = alloca i32, align 4
  %3 = alloca ptr, align 8
  store ptr %0, ptr %3, align 8, !tbaa !31
  %4 = load ptr, ptr %3, align 8
  %5 = getelementptr inbounds nuw %class.vector.3, ptr %4, i32 0, i32 0
  %6 = load ptr, ptr %5, align 8, !tbaa !167
  %7 = icmp eq ptr %6, null
  br i1 %7, label %8, label %9

8:                                                ; preds = %1
  store i32 0, ptr %2, align 4
  br label %14

9:                                                ; preds = %1
  %10 = getelementptr inbounds nuw %class.vector.3, ptr %4, i32 0, i32 0
  %11 = load ptr, ptr %10, align 8, !tbaa !167
  %12 = getelementptr inbounds i32, ptr %11, i64 -1
  %13 = load i32, ptr %12, align 4, !tbaa !37
  store i32 %13, ptr %2, align 4
  br label %14

14:                                               ; preds = %9, %8
  %15 = load i32, ptr %2, align 4
  ret i32 %15
}

; Function Attrs: mustprogress uwtable
define hidden void @_ZN3sat4ddfw15add_assumptionsEv(ptr noundef nonnull align 8 dereferenceable(434) %0) #6 align 2 {
  %2 = alloca ptr, align 8
  %3 = alloca i32, align 4
  store ptr %0, ptr %2, align 8, !tbaa !3
  %4 = load ptr, ptr %2, align 8
  call void @llvm.lifetime.start.p0(i64 4, ptr %3) #3
  store i32 0, ptr %3, align 4, !tbaa !37
  br label %5

5:                                                ; preds = %17, %1
  %6 = load i32, ptr %3, align 4, !tbaa !37
  %7 = getelementptr inbounds nuw %"class.sat::ddfw", ptr %4, i32 0, i32 3
  %8 = call noundef i32 @_ZNK6vectorIN3sat7literalELb0EjE4sizeEv(ptr noundef nonnull align 8 dereferenceable(8) %7)
  %9 = icmp ult i32 %6, %8
  br i1 %9, label %11, label %10

10:                                               ; preds = %5
  call void @llvm.lifetime.end.p0(i64 4, ptr %3) #3
  br label %20

11:                                               ; preds = %5
  %12 = getelementptr inbounds nuw %"class.sat::ddfw", ptr %4, i32 0, i32 3
  %13 = call noundef ptr @_ZNK6vectorIN3sat7literalELb0EjE4dataEv(ptr noundef nonnull align 8 dereferenceable(8) %12)
  %14 = load i32, ptr %3, align 4, !tbaa !37
  %15 = zext i32 %14 to i64
  %16 = getelementptr inbounds nuw %"class.sat::literal", ptr %13, i64 %15
  call void @_ZN3sat4ddfw3addEjPKNS_7literalE(ptr noundef nonnull align 8 dereferenceable(434) %4, i32 noundef 1, ptr noundef %16)
  br label %17

17:                                               ; preds = %11
  %18 = load i32, ptr %3, align 4, !tbaa !37
  %19 = add i32 %18, 1
  store i32 %19, ptr %3, align 4, !tbaa !37
  br label %5, !llvm.loop !175

20:                                               ; preds = %10
  ret void
}