; Function Attrs: mustprogress uwtable
define hidden void @_ZN3sat4ddfw15add_assumptionsEv(ptr noundef nonnull align 8 dereferenceable(434) %0) local_unnamed_addr #4 align 2 {
  %2 = getelementptr inbounds nuw i8, ptr %0, i64 80
  br label %3

3:                                                ; preds = %12, %1
  %indvars.iv = phi i64 [ %indvars.iv.next, %12 ], [ 0, %1 ]
  %4 = load ptr, ptr %2, align 8, !tbaa !37
  %5 = icmp eq ptr %4, null
  br i1 %5, label %_ZNK6vectorIN3sat7literalELb0EjE4sizeEv.exit, label %6

6:                                                ; preds = %3
  %7 = getelementptr inbounds i8, ptr %4, i64 -4
  %8 = load i32, ptr %7, align 4, !tbaa !26
  %9 = zext i32 %8 to i64
  br label %_ZNK6vectorIN3sat7literalELb0EjE4sizeEv.exit

_ZNK6vectorIN3sat7literalELb0EjE4sizeEv.exit:     ; preds = %3, %6
  %.0.i = phi i64 [ %9, %6 ], [ 0, %3 ]
  %10 = icmp samesign ult i64 %indvars.iv, %.0.i
  br i1 %10, label %12, label %11

11:                                               ; preds = %_ZNK6vectorIN3sat7literalELb0EjE4sizeEv.exit
  ret void

12:                                               ; preds = %_ZNK6vectorIN3sat7literalELb0EjE4sizeEv.exit
  %13 = getelementptr inbounds nuw %"class.sat::literal", ptr %4, i64 %indvars.iv
  tail call void @_ZN3sat4ddfw3addEjPKNS_7literalE(ptr noundef nonnull align 8 dereferenceable(434) %0, i32 noundef 1, ptr noundef %13)
  %indvars.iv.next = add nuw nsw i64 %indvars.iv, 1
  br label %3, !llvm.loop !88
}